; Function Attrs: nounwind uwtable
define ptr @l___private_Lean_Elab_MutualInductive_0__Lean_Elab_Command_fixedIndicesToParams_go___lambda__5(ptr noundef %0, ptr noundef %1, ptr noundef %2, ptr noundef %3, ptr noundef %4, ptr readnone captures(none) %5, ptr noundef %6, ptr noundef %7, ptr noundef %8, ptr noundef %9, ptr noundef %10) local_unnamed_addr #1 {
  %12 = tail call zeroext i8 @l_Lean_Expr_isForall(ptr noundef %0) #5
  %13 = icmp eq i8 %12, 0
  br i1 %13, label %14, label %93

14:                                               ; preds = %11
  %15 = ptrtoint ptr %9 to i64
  %16 = and i64 %15, 1
  %.not = icmp eq i64 %16, 0
  br i1 %.not, label %17, label %lean_dec.exit33

17:                                               ; preds = %14
  %18 = load i32, ptr %9, align 4, !tbaa !8
  %19 = icmp sgt i32 %18, 1
  br i1 %19, label %20, label %22, !prof !11

20:                                               ; preds = %17
  %21 = add nsw i32 %18, -1
  store i32 %21, ptr %9, align 4, !tbaa !8
  br label %lean_dec.exit33

22:                                               ; preds = %17
  %.not.i = icmp eq i32 %18, 0
  br i1 %.not.i, label %lean_dec.exit33, label %23

23:                                               ; preds = %22
  tail call void @lean_dec_ref_cold(ptr noundef nonnull %9) #5
  br label %lean_dec.exit33

lean_dec.exit33:                                  ; preds = %23, %22, %20, %14
  %24 = ptrtoint ptr %8 to i64
  %25 = and i64 %24, 1
  %.not48 = icmp eq i64 %25, 0
  br i1 %.not48, label %26, label %lean_dec.exit32

26:                                               ; preds = %lean_dec.exit33
  %27 = load i32, ptr %8, align 4, !tbaa !8
  %28 = icmp sgt i32 %27, 1
  br i1 %28, label %29, label %31, !prof !11

29:                                               ; preds = %26
  %30 = add nsw i32 %27, -1
  store i32 %30, ptr %8, align 4, !tbaa !8
  br label %lean_dec.exit32

31:                                               ; preds = %26
  %.not.i34 = icmp eq i32 %27, 0
  br i1 %.not.i34, label %lean_dec.exit32, label %32

32:                                               ; preds = %31
  tail call void @lean_dec_ref_cold(ptr noundef nonnull %8) #5
  br label %lean_dec.exit32

lean_dec.exit32:                                  ; preds = %32, %31, %29, %lean_dec.exit33
  %33 = ptrtoint ptr %7 to i64
  %34 = and i64 %33, 1
  %.not49 = icmp eq i64 %34, 0
  br i1 %.not49, label %35, label %lean_dec.exit31

35:                                               ; preds = %lean_dec.exit32
  %36 = load i32, ptr %7, align 4, !tbaa !8
  %37 = icmp sgt i32 %36, 1
  br i1 %37, label %38, label %40, !prof !11

38:                                               ; preds = %35
  %39 = add nsw i32 %36, -1
  store i32 %39, ptr %7, align 4, !tbaa !8
  br label %lean_dec.exit31

40:                                               ; preds = %35
  %.not.i36 = icmp eq i32 %36, 0
  br i1 %.not.i36, label %lean_dec.exit31, label %41

41:                                               ; preds = %40
  tail call void @lean_dec_ref_cold(ptr noundef nonnull %7) #5
  br label %lean_dec.exit31

lean_dec.exit31:                                  ; preds = %41, %40, %38, %lean_dec.exit32
  %42 = ptrtoint ptr %6 to i64
  %43 = and i64 %42, 1
  %.not50 = icmp eq i64 %43, 0
  br i1 %.not50, label %44, label %lean_dec.exit30

44:                                               ; preds = %lean_dec.exit31
  %45 = load i32, ptr %6, align 4, !tbaa !8
  %46 = icmp sgt i32 %45, 1
  br i1 %46, label %47, label %49, !prof !11

47:                                               ; preds = %44
  %48 = add nsw i32 %45, -1
  store i32 %48, ptr %6, align 4, !tbaa !8
  br label %lean_dec.exit30

49:                                               ; preds = %44
  %.not.i38 = icmp eq i32 %45, 0
  br i1 %.not.i38, label %lean_dec.exit30, label %50

50:                                               ; preds = %49
  tail call void @lean_dec_ref_cold(ptr noundef nonnull %6) #5
  br label %lean_dec.exit30

lean_dec.exit30:                                  ; preds = %50, %49, %47, %lean_dec.exit31
  %51 = ptrtoint ptr %4 to i64
  %52 = and i64 %51, 1
  %.not51 = icmp eq i64 %52, 0
  br i1 %.not51, label %53, label %lean_dec.exit29

53:                                               ; preds = %lean_dec.exit30
  %54 = load i32, ptr %4, align 4, !tbaa !8
  %55 = icmp sgt i32 %54, 1
  br i1 %55, label %56, label %58, !prof !11

56:                                               ; preds = %53
  %57 = add nsw i32 %54, -1
  store i32 %57, ptr %4, align 4, !tbaa !8
  br label %lean_dec.exit29

58:                                               ; preds = %53
  %.not.i40 = icmp eq i32 %54, 0
  br i1 %.not.i40, label %lean_dec.exit29, label %59

59:                                               ; preds = %58
  tail call void @lean_dec_ref_cold(ptr noundef nonnull %4) #5
  br label %lean_dec.exit29

lean_dec.exit29:                                  ; preds = %59, %58, %56, %lean_dec.exit30
  %60 = ptrtoint ptr %3 to i64
  %61 = and i64 %60, 1
  %.not52 = icmp eq i64 %61, 0
  br i1 %.not52, label %62, label %lean_dec.exit28

62:                                               ; preds = %lean_dec.exit29
  %63 = load i32, ptr %3, align 4, !tbaa !8
  %64 = icmp sgt i32 %63, 1
  br i1 %64, label %65, label %67, !prof !11

65:                                               ; preds = %62
  %66 = add nsw i32 %63, -1
  store i32 %66, ptr %3, align 4, !tbaa !8
  br label %lean_dec.exit28

67:                                               ; preds = %62
  %.not.i42 = icmp eq i32 %63, 0
  br i1 %.not.i42, label %lean_dec.exit28, label %68

68:                                               ; preds = %67
  tail call void @lean_dec_ref_cold(ptr noundef nonnull %3) #5
  br label %lean_dec.exit28

lean_dec.exit28:                                  ; preds = %68, %67, %65, %lean_dec.exit29
  %69 = ptrtoint ptr %1 to i64
  %70 = and i64 %69, 1
  %.not53 = icmp eq i64 %70, 0
  br i1 %.not53, label %71, label %lean_dec.exit27

71:                                               ; preds = %lean_dec.exit28
  %72 = load i32, ptr %1, align 4, !tbaa !8
  %73 = icmp sgt i32 %72, 1
  br i1 %73, label %74, label %76, !prof !11

74:                                               ; preds = %71
  %75 = add nsw i32 %72, -1
  store i32 %75, ptr %1, align 4, !tbaa !8
  br label %lean_dec.exit27

76:                                               ; preds = %71
  %.not.i44 = icmp eq i32 %72, 0
  br i1 %.not.i44, label %lean_dec.exit27, label %77

77:                                               ; preds = %76
  tail call void @lean_dec_ref_cold(ptr noundef nonnull %1) #5
  br label %lean_dec.exit27

lean_dec.exit27:                                  ; preds = %77, %76, %74, %lean_dec.exit28
  %78 = ptrtoint ptr %0 to i64
  %79 = and i64 %78, 1
  %.not54 = icmp eq i64 %79, 0
  br i1 %.not54, label %80, label %lean_dec.exit

80:                                               ; preds = %lean_dec.exit27
  %81 = load i32, ptr %0, align 4, !tbaa !8
  %82 = icmp sgt i32 %81, 1
  br i1 %82, label %83, label %85, !prof !11

83:                                               ; preds = %80
  %84 = add nsw i32 %81, -1
  store i32 %84, ptr %0, align 4, !tbaa !8
  br label %lean_dec.exit

85:                                               ; preds = %80
  %.not.i46 = icmp eq i32 %81, 0
  br i1 %.not.i46, label %lean_dec.exit, label %86

86:                                               ; preds = %85
  tail call void @lean_dec_ref_cold(ptr noundef nonnull %0) #5
  br label %lean_dec.exit

lean_dec.exit:                                    ; preds = %86, %85, %83, %lean_dec.exit27
  tail call void @lean_inc_heartbeat() #5
  %87 = tail call noalias ptr @mi_malloc_small(i64 noundef 24) #5
  %88 = icmp eq ptr %87, null
  br i1 %88, label %89, label %lean_alloc_ctor.exit

89:                                               ; preds = %lean_dec.exit
  tail call void @lean_internal_panic_out_of_memory() #6
  unreachable

lean_alloc_ctor.exit:                             ; preds = %lean_dec.exit
  %90 = getelementptr inbounds nuw i8, ptr %87, i64 4
  store i32 1, ptr %87, align 4, !tbaa !8
  store i32 131096, ptr %90, align 4
  %91 = getelementptr inbounds nuw i8, ptr %87, i64 8
  store ptr %2, ptr %91, align 8, !tbaa !12
  %92 = getelementptr inbounds nuw i8, ptr %87, i64 16
  store ptr %10, ptr %92, align 8, !tbaa !12
  br label %95

93:                                               ; preds = %11
  %94 = tail call ptr @l___private_Lean_Elab_MutualInductive_0__Lean_Elab_Command_fixedIndicesToParams_go___lambda__4(ptr noundef %0, ptr noundef %1, ptr noundef %2, ptr noundef %3, ptr noundef %4, ptr nonnull poison, ptr noundef %6, ptr noundef %7, ptr noundef %8, ptr noundef %9, ptr noundef %10)
  br label %95

95:                                               ; preds = %93, %lean_alloc_ctor.exit
  %.0 = phi ptr [ %87, %lean_alloc_ctor.exit ], [ %94, %93 ]
  ret ptr %.0
}